; Function Attrs: mustprogress uwtable
define hidden void @hb_paint_funcs_set_image_func(ptr nocapture noundef %0, ptr noundef %1, ptr noundef %2, ptr noundef %3) local_unnamed_addr #0 {
  %.not = icmp eq ptr %1, null
  %5 = getelementptr inbounds i8, ptr %0, i64 4
  %6 = load atomic i32, ptr %5 monotonic, align 4
  %.not.i.i.not = icmp eq i32 %6, 0
  br i1 %.not.i.i.not, label %7, label %9

7:                                                ; preds = %4
  %.not12.i = icmp eq ptr %3, null
  br i1 %.not12.i, label %_ZL28_hb_paint_funcs_set_preambleP16hb_paint_funcs_tbPPvPPFvS1_E.exit, label %8

8:                                                ; preds = %7
  tail call void %3(ptr noundef %2)
  br label %_ZL28_hb_paint_funcs_set_preambleP16hb_paint_funcs_tbPPvPPFvS1_E.exit

9:                                                ; preds = %4
  br i1 %.not, label %10, label %12

10:                                               ; preds = %9
  %.not.i = icmp eq ptr %3, null
  br i1 %.not.i, label %12, label %11

11:                                               ; preds = %10
  tail call void %3(ptr noundef %2)
  br label %12

12:                                               ; preds = %10, %11, %9
  %.034.ph = phi ptr [ null, %10 ], [ null, %11 ], [ %2, %9 ]
  %.0.ph = phi ptr [ null, %10 ], [ null, %11 ], [ %3, %9 ]
  %13 = getelementptr inbounds i8, ptr %0, i64 136
  %14 = load ptr, ptr %13, align 8
  %.not21 = icmp eq ptr %14, null
  br i1 %.not21, label %26, label %15

15:                                               ; preds = %12
  %16 = getelementptr inbounds i8, ptr %14, i64 56
  %17 = load ptr, ptr %16, align 8
  %.not22 = icmp eq ptr %17, null
  br i1 %.not22, label %26, label %18

18:                                               ; preds = %15
  %19 = getelementptr inbounds i8, ptr %0, i64 128
  %20 = load ptr, ptr %19, align 8
  %.not23 = icmp eq ptr %20, null
  br i1 %.not23, label %24, label %21

21:                                               ; preds = %18
  %22 = getelementptr inbounds i8, ptr %20, i64 56
  %23 = load ptr, ptr %22, align 8
  br label %24

24:                                               ; preds = %18, %21
  %25 = phi ptr [ %23, %21 ], [ null, %18 ]
  tail call void %17(ptr noundef %25)
  br label %26

26:                                               ; preds = %24, %15, %12
  %.not.i26 = icmp eq ptr %.034.ph, null
  br i1 %.not.i26, label %32, label %27

27:                                               ; preds = %26
  %28 = getelementptr inbounds i8, ptr %0, i64 128
  %29 = load ptr, ptr %28, align 8
  %.not13.i = icmp eq ptr %29, null
  br i1 %.not13.i, label %30, label %32

30:                                               ; preds = %27
  %31 = tail call noalias dereferenceable_or_null(112) ptr @calloc(i64 noundef 1, i64 noundef 112) #11
  store ptr %31, ptr %28, align 8
  %.not14.i = icmp eq ptr %31, null
  br i1 %.not14.i, label %37, label %32

32:                                               ; preds = %30, %27, %26
  %.not15.i = icmp eq ptr %.0.ph, null
  br i1 %.not15.i, label %38, label %33

33:                                               ; preds = %32
  %34 = load ptr, ptr %13, align 8
  %.not16.i = icmp eq ptr %34, null
  br i1 %.not16.i, label %35, label %38

35:                                               ; preds = %33
  %36 = tail call noalias dereferenceable_or_null(112) ptr @calloc(i64 noundef 1, i64 noundef 112) #11
  store ptr %36, ptr %13, align 8
  %.not17.i = icmp eq ptr %36, null
  br i1 %.not17.i, label %.thread.i, label %38

37:                                               ; preds = %30
  %.not18.i = icmp eq ptr %.0.ph, null
  br i1 %.not18.i, label %_ZL28_hb_paint_funcs_set_preambleP16hb_paint_funcs_tbPPvPPFvS1_E.exit, label %.thread.i

.thread.i:                                        ; preds = %37, %35
  tail call void %.0.ph(ptr noundef %.034.ph)
  br label %_ZL28_hb_paint_funcs_set_preambleP16hb_paint_funcs_tbPPvPPFvS1_E.exit

38:                                               ; preds = %35, %33, %32
  %spec.select = select i1 %.not, ptr @_ZL18hb_paint_image_nilP16hb_paint_funcs_tPvP9hb_blob_tjjjfP18hb_glyph_extents_tS1_, ptr %1
  %39 = getelementptr inbounds i8, ptr %0, i64 72
  store ptr %spec.select, ptr %39, align 8
  %40 = getelementptr inbounds i8, ptr %0, i64 128
  %41 = load ptr, ptr %40, align 8
  %.not24 = icmp eq ptr %41, null
  br i1 %.not24, label %44, label %42

42:                                               ; preds = %38
  %43 = getelementptr inbounds i8, ptr %41, i64 56
  store ptr %.034.ph, ptr %43, align 8
  br label %44

44:                                               ; preds = %42, %38
  %45 = load ptr, ptr %13, align 8
  %.not25 = icmp eq ptr %45, null
  br i1 %.not25, label %_ZL28_hb_paint_funcs_set_preambleP16hb_paint_funcs_tbPPvPPFvS1_E.exit, label %46

46:                                               ; preds = %44
  %47 = getelementptr inbounds i8, ptr %45, i64 56
  store ptr %.0.ph, ptr %47, align 8
  br label %_ZL28_hb_paint_funcs_set_preambleP16hb_paint_funcs_tbPPvPPFvS1_E.exit

_ZL28_hb_paint_funcs_set_preambleP16hb_paint_funcs_tbPPvPPFvS1_E.exit: ; preds = %.thread.i, %37, %8, %7, %46, %44
  ret void
}